target datalayout = "e-m:e-p270:32:32-p271:32:32-p272:64:64-i64:64-i128:128-f80:128-n8:16:32:64-S128"
target triple = "x86_64-pc-linux-gnu"

%"class.std::__shared_count" = type { ptr }
%"class.dropbox::oxygen::nn.68" = type { %"class.std::shared_ptr.51" }
%"class.std::shared_ptr.51" = type { %"class.std::__shared_ptr.52" }
%"class.std::__shared_ptr.52" = type { ptr, %"class.std::__shared_count" }
%"class.osgeo::proj::util::PropertyMap" = type { %"class.std::unique_ptr.174" }
%"class.std::unique_ptr.174" = type { %"struct.std::__uniq_ptr_data.175" }
%"struct.std::__uniq_ptr_data.175" = type { %"class.std::__uniq_ptr_impl.176" }
%"class.std::__uniq_ptr_impl.176" = type { %"class.std::tuple.177" }
%"class.std::tuple.177" = type { %"struct.std::_Tuple_impl.178" }
%"struct.std::_Tuple_impl.178" = type { %"struct.std::_Head_base.181" }
%"struct.std::_Head_base.181" = type { ptr }

; Function Attrs: mustprogress uwtable
define void @_ZN5osgeo4proj9operation14Transformation20createPositionVectorERKNS0_4util11PropertyMapERKN7dropbox6oxygen2nnISt10shared_ptrINS0_3crs3CRSEEEESG_dddddddRKSt6vectorINS9_ISA_INS0_8metadata18PositionalAccuracyEEEESaISL_EE(ptr dead_on_unwind noalias writable sret(%"class.dropbox::oxygen::nn.68") align 8 %0, ptr noundef nonnull align 8 dereferenceable(8) %1, ptr noundef nonnull align 8 dereferenceable(16) %2, ptr noundef nonnull align 8 dereferenceable(16) %3, double noundef %4, double noundef %5, double noundef %6, double noundef %7, double noundef %8, double noundef %9, double noundef %10, ptr noundef nonnull align 8 dereferenceable(24) %11) #0 align 2 personality ptr @__gxx_personality_v0 {
  %13 = alloca ptr, align 8
  %14 = alloca ptr, align 8
  %15 = alloca ptr, align 8
  %16 = alloca ptr, align 8
  %17 = alloca double, align 8
  %18 = alloca double, align 8
  %19 = alloca double, align 8
  %20 = alloca double, align 8
  %21 = alloca double, align 8
  %22 = alloca double, align 8
  %23 = alloca double, align 8
  %24 = alloca ptr, align 8
  %25 = alloca i8, align 1
  %26 = alloca i8, align 1
  %27 = alloca i8, align 1
  %28 = alloca %"class.osgeo::proj::util::PropertyMap", align 8
  %29 = alloca ptr, align 8
  %30 = alloca i32, align 4
  store ptr %0, ptr %13, align 8
  store ptr %1, ptr %14, align 8
  store ptr %2, ptr %15, align 8
  store ptr %3, ptr %16, align 8
  store double %4, ptr %17, align 8
  store double %5, ptr %18, align 8
  store double %6, ptr %19, align 8
  store double %7, ptr %20, align 8
  store double %8, ptr %21, align 8
  store double %9, ptr %22, align 8
  store double %10, ptr %23, align 8
  store ptr %11, ptr %24, align 8
  %31 = load ptr, ptr %15, align 8
  %32 = load ptr, ptr %16, align 8
  call void @_ZN5osgeo4proj9operationL21getTransformationTypeERKN7dropbox6oxygen2nnISt10shared_ptrINS0_3crs3CRSEEEESB_RbSC_SC_(ptr noundef nonnull align 8 dereferenceable(16) %31, ptr noundef nonnull align 8 dereferenceable(16) %32, ptr noundef nonnull align 1 dereferenceable(1) %25, ptr noundef nonnull align 1 dereferenceable(1) %26, ptr noundef nonnull align 1 dereferenceable(1) %27)
  %33 = load ptr, ptr %14, align 8
  %34 = load ptr, ptr %14, align 8
  %35 = load i8, ptr %25, align 1
  %36 = trunc i8 %35 to i1
  br i1 %36, label %37, label %38

37:                                               ; preds = %12
  br label %42

38:                                               ; preds = %12
  %39 = load i8, ptr %26, align 1
  %40 = trunc i8 %39 to i1
  %41 = select i1 %40, i32 9606, i32 1037
  br label %42

42:                                               ; preds = %38, %37
  %43 = phi i32 [ 1033, %37 ], [ %41, %38 ]
  %44 = call noundef i32 @_ZN5osgeo4proj9operationL35useOperationMethodEPSGCodeIfPresentERKNS0_4util11PropertyMapEi(ptr noundef nonnull align 8 dereferenceable(8) %34, i32 noundef %43)
  call void @_ZN5osgeo4proj9operation27createMethodMapNameEPSGCodeEi(ptr dead_on_unwind writable sret(%"class.osgeo::proj::util::PropertyMap") align 8 %28, i32 noundef %44)
  %45 = load ptr, ptr %15, align 8
  %46 = load ptr, ptr %16, align 8
  %47 = load double, ptr %17, align 8
  %48 = load double, ptr %18, align 8
  %49 = load double, ptr %19, align 8
  %50 = load double, ptr %20, align 8
  %51 = load double, ptr %21, align 8
  %52 = load double, ptr %22, align 8
  %53 = load double, ptr %23, align 8
  %54 = load ptr, ptr %24, align 8
  invoke void @_ZN5osgeo4proj9operationL26createSevenParamsTransformERKNS0_4util11PropertyMapES5_RKN7dropbox6oxygen2nnISt10shared_ptrINS0_3crs3CRSEEEESF_dddddddRKSt6vectorINS8_IS9_INS0_8metadata18PositionalAccuracyEEEESaISK_EE(ptr dead_on_unwind writable sret(%"class.dropbox::oxygen::nn.68") align 8 %0, ptr noundef nonnull align 8 dereferenceable(8) %33, ptr noundef nonnull align 8 dereferenceable(8) %28, ptr noundef nonnull align 8 dereferenceable(16) %45, ptr noundef nonnull align 8 dereferenceable(16) %46, double noundef %47, double noundef %48, double noundef %49, double noundef %50, double noundef %51, double noundef %52, double noundef %53, ptr noundef nonnull align 8 dereferenceable(24) %54)
          to label %55 unwind label %56

55:                                               ; preds = %42
  call void @_ZN5osgeo4proj4util11PropertyMapD1Ev(ptr noundef nonnull align 8 dereferenceable(8) %28) #16
  ret void

56:                                               ; preds = %42
  %57 = landingpad { ptr, i32 }
          cleanup
  %58 = extractvalue { ptr, i32 } %57, 0
  store ptr %58, ptr %29, align 8
  %59 = extractvalue { ptr, i32 } %57, 1
  store i32 %59, ptr %30, align 4
  call void @_ZN5osgeo4proj4util11PropertyMapD1Ev(ptr noundef nonnull align 8 dereferenceable(8) %28) #16
  br label %60

60:                                               ; preds = %56
  %61 = load ptr, ptr %29, align 8
  %62 = load i32, ptr %30, align 4
  %63 = insertvalue { ptr, i32 } poison, ptr %61, 0
  %64 = insertvalue { ptr, i32 } %63, i32 %62, 1
  resume { ptr, i32 } %64
}